; ModuleID = '42/72.c'
source_filename = "42/72.c"
target datalayout = "e-m:e-p270:32:32-p271:32:32-p272:64:64-i64:64-f80:128-n8:16:32:64-S128"
target triple = "x86_64-pc-linux-gnu"

@.str = private unnamed_addr constant [3 x i8] c"%d\00", align 1
@.str.1 = private unnamed_addr constant [4 x i8] c"%d \00", align 1

; Function Attrs: noinline nounwind uwtable
define dso_local i32 @main() #0 {
  %1 = alloca i32, align 4
  %2 = alloca i32, align 4
  %3 = alloca i32, align 4
  %4 = alloca i32, align 4
  %5 = alloca i32, align 4
  %6 = alloca i32, align 4
  %7 = alloca [100001 x i64], align 16
  %8 = alloca i32, align 4
  %9 = alloca i32, align 4
  store i32 0, i32* %1, align 4
  %10 = call i32 (i8*, ...) @__isoc99_scanf(i8* getelementptr inbounds ([3 x i8], [3 x i8]* @.str, i64 0, i64 0), i32* %2)
  store i32 1, i32* %3, align 4
  br label %11

11:                                               ; preds = %21, %0
  %12 = load i32, i32* %3, align 4
  %13 = load i32, i32* %2, align 4
  %14 = icmp sle i32 %12, %13
  br i1 %14, label %15, label %24

15:                                               ; preds = %11
  %16 = load i32, i32* %3, align 4
  %17 = sub nsw i32 %16, 1
  %18 = sext i32 %17 to i64
  %19 = getelementptr inbounds [100001 x i64], [100001 x i64]* %7, i64 0, i64 %18
  %20 = call i32 (i8*, ...) @__isoc99_scanf(i8* getelementptr inbounds ([3 x i8], [3 x i8]* @.str, i64 0, i64 0), i64* %19)
  br label %21

21:                                               ; preds = %15
  %22 = load i32, i32* %3, align 4
  %23 = add nsw i32 %22, 1
  store i32 %23, i32* %3, align 4
  br label %11

24:                                               ; preds = %11
  %25 = call i32 (i8*, ...) @__isoc99_scanf(i8* getelementptr inbounds ([3 x i8], [3 x i8]* @.str, i64 0, i64 0), i32* %6)
  store i32 0, i32* %5, align 4
  store i32 0, i32* %4, align 4
  br label %26

26:                                               ; preds = %71, %24
  %27 = load i32, i32* %4, align 4
  %28 = load i32, i32* %2, align 4
  %29 = icmp slt i32 %27, %28
  br i1 %29, label %30, label %74

30:                                               ; preds = %26
  %31 = load i32, i32* %4, align 4
  %32 = sext i32 %31 to i64
  %33 = getelementptr inbounds [100001 x i64], [100001 x i64]* %7, i64 0, i64 %32
  %34 = load i64, i64* %33, align 8
  %35 = load i32, i32* %6, align 4
  %36 = sext i32 %35 to i64
  %37 = icmp eq i64 %34, %36
  br i1 %37, label %38, label %59

38:                                               ; preds = %30
  %39 = load i32, i32* %4, align 4
  store i32 %39, i32* %8, align 4
  br label %40

40:                                               ; preds = %53, %38
  %41 = load i32, i32* %8, align 4
  %42 = load i32, i32* %2, align 4
  %43 = icmp slt i32 %41, %42
  br i1 %43, label %44, label %56

44:                                               ; preds = %40
  %45 = load i32, i32* %8, align 4
  %46 = add nsw i32 %45, 1
  %47 = sext i32 %46 to i64
  %48 = getelementptr inbounds [100001 x i64], [100001 x i64]* %7, i64 0, i64 %47
  %49 = load i64, i64* %48, align 8
  %50 = load i32, i32* %8, align 4
  %51 = sext i32 %50 to i64
  %52 = getelementptr inbounds [100001 x i64], [100001 x i64]* %7, i64 0, i64 %51
  store i64 %49, i64* %52, align 8
  br label %53

53:                                               ; preds = %44
  %54 = load i32, i32* %8, align 4
  %55 = add nsw i32 %54, 1
  store i32 %55, i32* %8, align 4
  br label %40

56:                                               ; preds = %40
  %57 = load i32, i32* %5, align 4
  %58 = add nsw i32 %57, 1
  store i32 %58, i32* %5, align 4
  br label %59

59:                                               ; preds = %56, %30
  %60 = load i32, i32* %4, align 4
  %61 = sext i32 %60 to i64
  %62 = getelementptr inbounds [100001 x i64], [100001 x i64]* %7, i64 0, i64 %61
  %63 = load i64, i64* %62, align 8
  %64 = load i32, i32* %6, align 4
  %65 = sext i32 %64 to i64
  %66 = icmp eq i64 %63, %65
  br i1 %66, label %67, label %70

67:                                               ; preds = %59
  %68 = load i32, i32* %4, align 4
  %69 = add nsw i32 %68, -1
  store i32 %69, i32* %4, align 4
  br label %70

70:                                               ; preds = %67, %59
  br label %71

71:                                               ; preds = %70
  %72 = load i32, i32* %4, align 4
  %73 = add nsw i32 %72, 1
  store i32 %73, i32* %4, align 4
  br label %26

74:                                               ; preds = %26
  store i32 0, i32* %9, align 4
  br label %75

75:                                               ; preds = %88, %74
  %76 = load i32, i32* %9, align 4
  %77 = load i32, i32* %2, align 4
  %78 = load i32, i32* %5, align 4
  %79 = sub nsw i32 %77, %78
  %80 = sub nsw i32 %79, 1
  %81 = icmp slt i32 %76, %80
  br i1 %81, label %82, label %91

82:                                               ; preds = %75
  %83 = load i32, i32* %9, align 4
  %84 = sext i32 %83 to i64
  %85 = getelementptr inbounds [100001 x i64], [100001 x i64]* %7, i64 0, i64 %84
  %86 = load i64, i64* %85, align 8
  %87 = call i32 (i8*, ...) @printf(i8* getelementptr inbounds ([4 x i8], [4 x i8]* @.str.1, i64 0, i64 0), i64 %86)
  br label %88

88:                                               ; preds = %82
  %89 = load i32, i32* %9, align 4
  %90 = add nsw i32 %89, 1
  store i32 %90, i32* %9, align 4
  br label %75

91:                                               ; preds = %75
  %92 = load i32, i32* %2, align 4
  %93 = load i32, i32* %5, align 4
  %94 = sub nsw i32 %92, %93
  %95 = sub nsw i32 %94, 1
  %96 = sext i32 %95 to i64
  %97 = getelementptr inbounds [100001 x i64], [100001 x i64]* %7, i64 0, i64 %96
  %98 = load i64, i64* %97, align 8
  %99 = call i32 (i8*, ...) @printf(i8* getelementptr inbounds ([3 x i8], [3 x i8]* @.str, i64 0, i64 0), i64 %98)
  ret i32 0
}

declare dso_local i32 @__isoc99_scanf(i8*, ...) #1

declare dso_local i32 @printf(i8*, ...) #1


!llvm.module.flags = !{!0}
!llvm.ident = !{!1}

!0 = !{i32 1, !"wchar_size", i32 4}
!1 = !{!"clang version 10.0.0-4ubuntu1 "}
